; Function Attrs: mustprogress uwtable
define hidden noundef zeroext i1 @_ZNK3nla11nex_creator17sum_is_simplifiedERKNS_7nex_sumE(ptr noundef nonnull align 8 dereferenceable(176) %this, ptr noundef nonnull align 8 dereferenceable(16) %e) local_unnamed_addr #3 align 2 {
entry:
  %vtable = load ptr, ptr %e, align 8
  %0 = load ptr, ptr %vtable, align 8
  %call = tail call noundef i32 %0(ptr noundef nonnull align 8 dereferenceable(16) %e)
  %cmp = icmp ult i32 %call, 2
  br i1 %cmp, label %return, label %if.end

if.end:                                           ; preds = %entry
  %m_children.i = getelementptr inbounds i8, ptr %e, i64 8
  %1 = load ptr, ptr %m_children.i, align 8
  %cmp.i.i = icmp eq ptr %1, null
  br i1 %cmp.i.i, label %return, label %_ZNK3nla7nex_sum3endEv.exit

_ZNK3nla7nex_sum3endEv.exit:                      ; preds = %if.end
  %arrayidx.i.i = getelementptr inbounds i8, ptr %1, i64 -4
  %2 = load i32, ptr %arrayidx.i.i, align 4
  %3 = zext i32 %2 to i64
  %add.ptr.i = getelementptr inbounds ptr, ptr %1, i64 %3
  %cmp4.not24 = icmp eq i32 %2, 0
  br i1 %cmp4.not24, label %return, label %for.body

for.body:                                         ; preds = %_ZNK3nla7nex_sum3endEv.exit, %for.inc
  %scalar.026 = phi i8 [ %scalar.1, %for.inc ], [ 0, %_ZNK3nla7nex_sum3endEv.exit ]
  %__begin1.025 = phi ptr [ %incdec.ptr, %for.inc ], [ %1, %_ZNK3nla7nex_sum3endEv.exit ]
  %4 = load ptr, ptr %__begin1.025, align 8
  %vtable.i = load ptr, ptr %4, align 8
  %vfn.i = getelementptr inbounds i8, ptr %vtable.i, i64 8
  %5 = load ptr, ptr %vfn.i, align 8
  %call.i = tail call noundef i32 %5(ptr noundef nonnull align 8 dereferenceable(8) %4)
  %cmp.i = icmp eq i32 %call.i, 2
  br i1 %cmp.i, label %return, label %if.end7

if.end7:                                          ; preds = %for.body
  %vtable.i10 = load ptr, ptr %4, align 8
  %vfn.i11 = getelementptr inbounds i8, ptr %vtable.i10, i64 8
  %6 = load ptr, ptr %vfn.i11, align 8
  %call.i12 = tail call noundef i32 %6(ptr noundef nonnull align 8 dereferenceable(8) %4)
  %cmp.i13 = icmp eq i32 %call.i12, 0
  br i1 %cmp.i13, label %if.then9, label %if.end20

if.then9:                                         ; preds = %if.end7
  %7 = and i8 %scalar.026, 1
  %tobool.not = icmp eq i8 %7, 0
  br i1 %tobool.not, label %if.end11, label %return

if.end11:                                         ; preds = %if.then9
  %m_v.i = getelementptr inbounds i8, ptr %4, i64 8
  %8 = load i32, ptr %m_v.i, align 8
  %cmp.i.i.i.i = icmp eq i32 %8, 0
  %spec.select = select i1 %cmp.i.i.i.i, i8 1, i8 %scalar.026
  br label %if.end20

if.end20:                                         ; preds = %if.end11, %if.end7
  %scalar.1 = phi i8 [ %scalar.026, %if.end7 ], [ %spec.select, %if.end11 ]
  %vtable.i19 = load ptr, ptr %4, align 8
  %vfn.i20 = getelementptr inbounds i8, ptr %vtable.i19, i64 8
  %9 = load ptr, ptr %vfn.i20, align 8
  %call.i21 = tail call noundef i32 %9(ptr noundef nonnull align 8 dereferenceable(8) %4)
  %cmp.i22 = icmp eq i32 %call.i21, 3
  br i1 %cmp.i22, label %if.then.i, label %if.end.i

if.then.i:                                        ; preds = %if.end20
  %call3.i = tail call noundef zeroext i1 @_ZNK3nla11nex_creator17mul_is_simplifiedERKNS_7nex_mulE(ptr noundef nonnull align 8 dereferenceable(176) %this, ptr noundef nonnull align 8 dereferenceable(48) %4)
  br i1 %call3.i, label %for.inc, label %return

if.end.i:                                         ; preds = %if.end20
  %vtable.i15 = load ptr, ptr %4, align 8
  %vfn.i16 = getelementptr inbounds i8, ptr %vtable.i15, i64 8
  %10 = load ptr, ptr %vfn.i16, align 8
  %call.i17 = tail call noundef i32 %10(ptr noundef nonnull align 8 dereferenceable(8) %4)
  %cmp.i18 = icmp eq i32 %call.i17, 2
  br i1 %cmp.i18, label %_ZNK3nla11nex_creator13is_simplifiedERKNS_3nexE.exit, label %for.inc

_ZNK3nla11nex_creator13is_simplifiedERKNS_3nexE.exit: ; preds = %if.end.i
  %call7.i = tail call noundef zeroext i1 @_ZNK3nla11nex_creator17sum_is_simplifiedERKNS_7nex_sumE(ptr noundef nonnull align 8 dereferenceable(176) %this, ptr noundef nonnull align 8 dereferenceable(16) %4)
  br i1 %call7.i, label %for.inc, label %return

for.inc:                                          ; preds = %if.end.i, %if.then.i, %_ZNK3nla11nex_creator13is_simplifiedERKNS_3nexE.exit
  %incdec.ptr = getelementptr inbounds i8, ptr %__begin1.025, i64 8
  %cmp4.not = icmp eq ptr %incdec.ptr, %add.ptr.i
  br i1 %cmp4.not, label %return, label %for.body

return:                                           ; preds = %for.body, %if.then9, %_ZNK3nla11nex_creator13is_simplifiedERKNS_3nexE.exit, %for.inc, %if.then.i, %if.end, %_ZNK3nla7nex_sum3endEv.exit, %entry
  %retval.0 = phi i1 [ false, %entry ], [ true, %_ZNK3nla7nex_sum3endEv.exit ], [ true, %if.end ], [ false, %for.body ], [ false, %if.then9 ], [ false, %_ZNK3nla11nex_creator13is_simplifiedERKNS_3nexE.exit ], [ true, %for.inc ], [ false, %if.then.i ]
  ret i1 %retval.0
}